Certificate:
    Data:
        Version: 3 (0x2)
        Serial Number: 4 (0x4)
        Signature Algorithm: sha256WithRSAEncryption
        Issuer: C=US, ST=VA, L=Reston, O=SAG, OU=R&D, CN=MC/emailAddress=Security@YourCompany.com
        Validity
            Not Before: Apr 28 18:41:43 2020 GMT
            Not After : Apr 28 18:41:43 2021 GMT
        Subject: C=US, ST=VA, L=Reston, O=SAG, OU=R&D, CN=MC/emailAddress=Security@YourCompany.com
        Subject Public Key Info:
            Public Key Algorithm: rsaEncryption
                RSA Public-Key: (1024 bit)
                Modulus:
                    00:b1:2d:4c:ce:c9:66:22:57:47:03:af:b7:e2:b3:
                    44:6d:20:3c:16:e8:b9:aa:9d:e3:48:81:8e:5a:a9:
                    cf:59:a4:11:18:0c:23:0c:49:4c:90:9d:f9:14:2e:
                    6d:38:be:3f:a0:df:cd:89:f8:62:01:2d:f3:07:d1:
                    fe:c2:54:ea:8f:51:1b:9f:43:76:83:0a:80:97:38:
                    a5:3a:6a:fe:97:39:6f:2e:f2:a4:94:ed:65:27:fd:
                    c9:7a:1e:e1:d8:43:83:43:75:d2:82:38:4c:8e:b9:
                    64:5a:e2:e3:86:46:48:74:ff:8c:6b:6f:52:6a:2a:
                    66:f4:2a:32:cc:16:7d:90:7b
                Exponent: 65537 (0x10001)
        X509v3 extensions:
            X509v3 Basic Constraints: 
                CA:FALSE
            Netscape Comment: 
                OpenSSL Generated Certificate
            X509v3 Subject Key Identifier: 
                17:22:73:F1:94:BD:E4:B9:32:CE:DE:42:E0:61:F3:F7:F4:57:2B:C7
            X509v3 Authority Key Identifier: 
                keyid:C7:AE:8A:F3:25:13:8C:2F:53:55:3C:37:7A:88:B0:E4:AD:A2:8C:1A
                DirName:/C=US/ST=VA/L=Reston/O=SAG/OU=R&D/CN=MC/emailAddress=Security@YourCompany.com
                serial:79:4C:32:2B:5B:66:93:9C:49:CE:C2:54:67:1E:1B:B9:1F:E5:BC:EC

    Signature Algorithm: sha256WithRSAEncryption
         c0:74:85:cd:43:d2:69:64:67:50:3c:6d:97:77:d1:8c:a9:ad:
         1b:a5:ca:e9:3f:86:a5:85:65:0b:22:39:42:0c:79:b2:7f:75:
         ba:0c:18:f1:05:41:f0:6c:55:82:72:87:20:c4:f5:26:3b:59:
         12:df:a7:0d:ad:7a:ea:29:ca:1d:ab:55:bf:0e:7f:c3:3d:20:
         1c:61:e7:bd:12:a4:2e:da:23:35:2c:d0:91:8c:83:09:2f:78:
         d3:e0:38:58:d0:40:69:3e:41:33:5d:97:6c:db:00:bb:ac:cd:
         32:58:fa:fb:41:01:88:24:06:8e:95:22:c3:7c:30:a4:d8:cf:
         54:cf
-----BEGIN CERTIFICATE-----
MIIDjDCCAvWgAwIBAgIBBDANBgkqhkiG9w0BAQsFADB9MQswCQYDVQQGEwJVUzEL
MAkGA1UECBMCVkExDzANBgNVBAcTBlJlc3RvbjEMMAoGA1UEChMDU0FHMQwwCgYD
VQQLFANSJkQxCzAJBgNVBAMTAk1DMScwJQYJKoZIhvcNAQkBFhhTZWN1cml0eUBZ
b3VyQ29tcGFueS5jb20wHhcNMjAwNDI4MTg0MTQzWhcNMjEwNDI4MTg0MTQzWjB9
MQswCQYDVQQGEwJVUzELMAkGA1UECBMCVkExDzANBgNVBAcTBlJlc3RvbjEMMAoG
A1UEChMDU0FHMQwwCgYDVQQLFANSJkQxCzAJBgNVBAMTAk1DMScwJQYJKoZIhvcN
AQkBFhhTZWN1cml0eUBZb3VyQ29tcGFueS5jb20wgZ8wDQYJKoZIhvcNAQEBBQAD
gY0AMIGJAoGBALEtTM7JZiJXRwOvt+KzRG0gPBbouaqd40iBjlqpz1mkERgMIwxJ
TJCd+RQubTi+P6DfzYn4YgEt8wfR/sJU6o9RG59DdoMKgJc4pTpq/pc5by7ypJTt
ZSf9yXoe4dhDg0N10oI4TI65ZFri44ZGSHT/jGtvUmoqZvQqMswWfZB7AgMBAAGj
ggEaMIIBFjAJBgNVHRMEAjAAMCwGCWCGSAGG+EIBDQQfFh1PcGVuU1NMIEdlbmVy
YXRlZCBDZXJ0aWZpY2F0ZTAdBgNVHQ4EFgQUFyJz8ZS95Lkyzt5C4GHz9/RXK8cw
gbsGA1UdIwSBszCBsIAUx66K8yUTjC9TVTw3eoiw5K2ijBqhgYGkfzB9MQswCQYD
VQQGEwJVUzELMAkGA1UECBMCVkExDzANBgNVBAcTBlJlc3RvbjEMMAoGA1UEChMD
U0FHMQwwCgYDVQQLFANSJkQxCzAJBgNVBAMTAk1DMScwJQYJKoZIhvcNAQkBFhhT
ZWN1cml0eUBZb3VyQ29tcGFueS5jb22CFHlMMitbZpOcSc7CVGceG7kf5bzsMA0G
CSqGSIb3DQEBCwUAA4GBAMB0hc1D0mlkZ1A8bZd30YyprRulyuk/hqWFZQsiOUIM
ebJ/dboMGPEFQfBsVYJyhyDE9SY7WRLfpw2teuopyh2rVb8Of8M9IBxh570SpC7a
IzUs0JGMgwkveNPgOFjQQGk+QTNdl2zbALuszTJY+vtBAYgkBo6VIsN8MKTYz1TP
-----END CERTIFICATE-----
-----BEGIN ENCRYPTED PRIVATE KEY-----
MIIC1DBOBgkqhkiG9w0BBQ0wQTApBgkqhkiG9w0BBQwwHAQIaeYMnQpLIhECAggA
MAwGCCqGSIb3DQIJBQAwFAYIKoZIhvcNAwcECHjJZnyqMzdTBIICgCMPbuvxr3rE
+rotdwK/fYu+k2ldagE6aGS00NF2MtoPSvfP2fGoy24QPwRLLNSUGefA6Zo+boxy
G1kcHbpnMKDLyf8NrDd8ccty2XkZ3o8+qfqKGACl6mdAa3lWAKxD3lv8qP5mTfjG
bvreO7M/K7E+8V0/JkHOlDOAzmWdwv1gliFgzO+LIfxizI+C5eMXwh/RGieyewHe
fMV1B6x2zLg528pTk1YoeWTy4+s1Pk2obgbMGxB3x5s4wiWnmkzBKzS4ewVXBd/F
cGtP5tfpmYl9Olsh0d/Z2ZLfkCp805v4awANlnZJjCIyCLPlS6DxMGdAWyJkKj8W
eL2ojbV5rHZ6FhrDttkXkAlpq5Udd6Xa8/Id4GzGqZYkJlGHjDawTmJcnC1Xc0KR
doTbMyGZZvmmCczG0G3d0Hu4g4/5xVbyyssVnGSYcw5EGkOsGTPl6vpVWBmNtGVO
pUekuHmJpvYIA53aol2IAXoUXd9pkt4tGFXvdkpzbaK3lYzRslj5KwW9/+2e1KL8
+e8YYRVDMfQjIe+xZmh7jN3CdC+aaNPvXg/6iy3zGlBaQmDSQr5DzGEpU8yFrAwa
GvyEVwnejT3Ly4tNtF/zf60d5YpQW6aItAVCPIKrVTpsyqTC0jscQXAehdSKDaPn
/WOOD7j/CQCWkp5VH3gISHq7gxt8IkPsRYMaJ2xUrLehuSAop5789rAPxZgr1stK
baCumly9j25zc4TRhF5UNWeVjVxmh4shrF/Ac7zuajb1B7g8JlZgh3qlAzl3Z0VM
D46y7g0tIWX2cLBvCVeY3hmKVDsb83BiIqWItiZsJv4p+TtStYghJ7rE0KHC2u+q
Th+BFQj57EI=
-----END ENCRYPTED PRIVATE KEY-----
